(dp1
S'output'
p2
S'missing "pass" in view'
p3
sS'layer'
p4
S'ParserContainer'
p5
sS'code'
p6
S'response.write(\'<!--[if HTML5]><![endif]-->\\n<!DOCTYPE html>\\n<!-- paulirish.com/2008/conditional-stylesheets-vs-css-hacks-answer-neither/ -->\\n<!--[if lt IE 7]><html class="ie ie6 ie-lte9 ie-lte8 ie-lte7 no-js" lang="\', escape=False)\nresponse.write(T.accepted_language or \'en\')\nresponse.write(\'"> <![endif]-->\\n<!--[if IE 7]><html class="ie ie7 ie-lte9 ie-lte8 ie-lte7 no-js" lang="\', escape=False)\nresponse.write(T.accepted_language or \'en\')\nresponse.write(\'"> <![endif]-->\\n<!--[if IE 8]><html class="ie ie8 ie-lte9 ie-lte8 no-js" lang="\', escape=False)\nresponse.write(T.accepted_language or \'en\')\nresponse.write(\'"> <![endif]-->\\n<!--[if IE 9]><html class="ie9 ie-lte9 no-js" lang="\', escape=False)\nresponse.write(T.accepted_language or \'en\')\nresponse.write(\'"> <![endif]-->\\n<!--[if (gt IE 9)|!(IE)]><!--> <html class="no-js" lang="\', escape=False)\nresponse.write(T.accepted_language or \'en\')\nresponse.write(\'"> <!--<![endif]-->\\n<head>\\n<title>\', escape=False)\nresponse.write(response.title or request.application)\nresponse.write(\'</title>\\n  <!--[if !HTML5]>\\n      <meta http-equiv="X-UA-Compatible" content="IE=edge\', escape=False)\nresponse.write(not request.is_local and \',chrome=1\' or \'\')\nresponse.write(\'">\\n  <![endif]-->\\n  <!-- www.phpied.com/conditional-comments-block-downloads/ -->\\n  <!-- Always force latest IE rendering engine\\n       (even in intranet) & Chrome Frame\\n       Remove this if you use the .htaccess -->\\n\\t   \\n  <meta charset="utf-8" />\\n\\n  <!-- http://dev.w3.org/html5/markup/meta.name.html -->\\n  <meta name="application-name" content="\', escape=False)\nresponse.write(request.application)\nresponse.write(\'" />\\n\\n  <!-- Speaking of Google, don\\\'t forget to set your site up:\\n       http://google.com/webmasters -->\\n  <meta name="google-site-verification" content="" />\\n\\n  <!--  Mobile Viewport Fix\\n        j.mp/mobileviewport & davidbcalhoun.com/2010/viewport-metatag\\n        device-width: Occupy full width of the screen in its current orientation\\n        initial-scale = 1.0 retains dimensions instead of zooming out if page height > device height\\n        user-scalable = yes allows the user to zoom in -->\\n  <meta name="viewport" content="width=device-width, initial-scale=1.0" />\\n\\n  <link rel="shortcut icon" href="\', escape=False)\nresponse.write(URL(\'static\',\'images/note.jpg\'))\nresponse.write(\'" type="image/x-icon">\\n  <link rel="apple-touch-icon" href="\', escape=False)\nresponse.write(URL(\'static\',\'images/note.jpg\'))\nresponse.write(\'">\\n\\n  <!-- All JavaScript at the bottom, except for Modernizr which enables\\n       HTML5 elements & feature detects -->\\n  <script src="\', escape=False)\nresponse.write(URL(\'static\',\'js/modernizr.custom.js\'))\nresponse.write(\'"></script>\\n\\n  <!-- include stylesheets -->\\n  \', escape=False)\nresponse.files.insert(0,URL(\'static\',\'css/web2py.css\'))\nresponse.files.insert(1,URL(\'static\',\'css/bootstrap.min.css\'))\nresponse.files.insert(2,URL(\'static\',\'css/bootstrap-responsive.min.css\'))\nresponse.files.insert(3,URL(\'static\',\'css/web2py_bootstrap.css\'))\nresponse.write(\'\\n\\n  \', escape=False)\nresponse.write(\'<script type="text/javascript"><!--\\n    // These variables are used by the web2py_ajax_init function in web2py_ajax.js (which is loaded below).\\n    var w2p_ajax_confirm_message = "\', escape=False)\nresponse.write(T(\'Are you sure you want to delete this object?\'))\nresponse.write(\'";\\n    var w2p_ajax_disable_with_message = "\', escape=False)\nresponse.write(T(\'Working...\'))\nresponse.write(\'";\\n    var w2p_ajax_date_format = "\', escape=False)\nresponse.write(T(\'%Y-%m-%d\'))\nresponse.write(\'";\\n    var w2p_ajax_datetime_format = "\', escape=False)\nresponse.write(T(\'%Y-%m-%d %H:%M:%S\'))\nresponse.write(\'";\\n    var ajax_error_500 = \\\'\', escape=False)\nresponse.write(XML(T(\'An error occured, please %s the page\') % A(T(\'reload\'), _href=URL(args=request.args, vars=request.get_vars))))\nresponse.write("\'\\n    //--></script>\\n", escape=False)\nresponse.files.insert(0,URL(\'static\',\'js/jquery.js\'))\nresponse.files.insert(1,URL(\'static\',\'css/calendar.css\'))\nresponse.files.insert(2,URL(\'static\',\'js/calendar.js\'))\nresponse.files.insert(3,URL(\'static\',\'js/web2py.js\'))\nresponse.include_meta()\nresponse.include_files()\nresponse.write(\'\\n\', escape=False)\nresponse.write(\'\\n\\n  \', escape=False)\n# using sidebars need to know what sidebar you want to use\nleft_sidebar_enabled = globals().get(\'left_sidebar_enabled\',False)\nright_sidebar_enabled = globals().get(\'right_sidebar_enabled\',False)\nmiddle_columns = {0:\'span12\',1:\'span9\',2:\'span6\'}[\n(left_sidebar_enabled and 1 or 0)+(right_sidebar_enabled and 1 or 0)]\nresponse.write(\'\\n\\n  <!-- uncomment here to load jquery-ui\\n       <link rel="stylesheet" href="http://ajax.googleapis.com/ajax/libs/jqueryui/1.10.3/themes/base/jquery-ui.css" type="text/css" media="all" />\\n       <script src="http://ajax.googleapis.com/ajax/libs/jqueryui/1.10.3/jquery-ui.min.js" type="text/javascript"></script>\\n       uncomment to load jquery-ui //-->\\n  <noscript><link href="\', escape=False)\nresponse.write(URL(\'static\', \'css/web2py_bootstrap_nojs.css\'))\nresponse.write(\'" rel="stylesheet" type="text/css" /></noscript>\\n  \', escape=False)\nresponse.write(\'\\n\\n <style type="text/css">\\n body {\\n\\t color:white;\\n\\t background-image:url("\', escape=False)\nresponse.write(URL(\'static\',\'images/back.jpg\'))\nresponse.write(\'");}\\n</style>\\n  \\n  </head>\\n\\n\\n\\n\\n\\t<body>\\n\\t  <!-- Navbar ================================================== -->\\n  <div class="navbar navbar-inverse">\\n    <div class="navbar-inner">\\n      <div class="container">\\n        \', escape=False)\nis_mobile=request.user_agent().is_mobile\nresponse.write(\'\\n        <!-- the next tag is necessary for bootstrap menus, do not remove -->\\n        <button type="button" class="btn btn-navbar" data-toggle="collapse" data-target=".nav-collapse" style="\', escape=False)\nresponse.write(\'display:none;\' if not is_mobile else \'\')\nresponse.write(\'">\\n          <span class="icon-bar"></span>\\n          <span class="icon-bar"></span>\\n          <span class="icon-bar"></span>\\n        </button>\\n        \', escape=False)\nresponse.write(response.logo or \'\')\nresponse.write(\'\\n        <ul id="navbar" class="nav pull-right">\', escape=False)\nresponse.write(\'auth\' in globals() and auth.navbar(mode="dropdown") or \'\')\nresponse.write(\'</ul>\\n        <div class="\', escape=False)\nresponse.write(\'nav-collapse\' if is_mobile else \'nav\')\nresponse.write(\'">\\n          \', escape=False)\nif response.menu:\n    response.write(\'\\n          \', escape=False)\n    response.write(MENU(response.menu, _class=\'mobile-menu nav\' if is_mobile else \'nav\',mobile=is_mobile,li_class=\'dropdown\',ul_class=\'dropdown-menu\'))\n    response.write(\'\\n          \', escape=False)\n    pass\nresponse.write(\'\\n        </div><!--/.nav-collapse -->\\n      </div>\\n    </div>\\n  </div><!--/top navbar -->\\n\\n  <div class="container">\\n    <!-- Masthead ================================================== -->\\n    <header class="mastheader row" id="header">\\n      \', escape=False)\nif response.title:\n    response.write(\'\\n        <div class="span12">\\n            <div class="page-header">\\n                <h1>\\n                    \', escape=False)\n    response.write(response.title)\n    response.write(\'\\n                    <small>\', escape=False)\n    response.write(response.subtitle or \'\')\n    response.write(\'</small>\\n                </h1>\\n            </div>\\n        </div>\\n\\t\', escape=False)\n    pass\nresponse.write(\'\\n    </header>\\n\\n    <section id="main" class="main row">\\n        \', escape=False)\nif left_sidebar_enabled:\n    response.write(\'\\n        <div class="span3 left-sidebar">\\n            \', escape=False)\n    response.write(\'\\n            <h3>Left Sidebar</h3>\\n            <p></p>\\n            \', escape=False)\n    response.write(\'\\n        </div>\\n        \', escape=False)\n    pass\nresponse.write(\'\\n\\n        <div class="\', escape=False)\nresponse.write(middle_columns)\nresponse.write(\'">\\n            \', escape=False)\nresponse.write(\'\\n            \', escape=False)\nresponse.write(\'\\n\\n<div id="searchbox" style="background-color:; width:100%">\\n    <h5>Looking for something else?</h5>\\n    <form method=\\\'get\\\' action="\', escape=False)\nresponse.write(URL(\'swaraa\',\'default\',\'search\'))\nresponse.write(\'">\\n\\t<input type=\\\'text\\\' name=\\\'keyword\\\'>\\n\\t</br>\\n\\t<input type=\\\'submit\\\' value=\\\'Search\\\'>\\n    </form>\\n</div>\\n\\n<div id=\\\'container\\\' style="background-color:; width:60%">\\n   <h3> \', escape=False)\nresponse.write(song[0][\'Title\'])\nresponse.write(\'</h3>\\n\\n    <!--music player here-->\\n    <audio controls autoplay> <source src="\', escape=False)\nresponse.write(URL(\'download\',args=song[0].Audio_File))\nresponse.write(\'">No support</audio><br></br>\\t\\t\\t\\t\\n</div>\\n\\t<div style="background-color:">\\n    Raaga: \', escape=False)\nresponse.write(song[0][\'raaga\'])\nresponse.write(\'<br>\\n    Taala: \', escape=False)\nresponse.write(song[0][\'taala\'])\nresponse.write(\'<br>\\n    Composer: \', escape=False)\nresponse.write(song[0][\'Composer\'])\nresponse.write(\'<br>\\n    Genre: \', escape=False)\nresponse.write(song[0][\'Genre\'])\nresponse.write(\'<br>\\n\\t</div>\\n\\n\\n<div id=\\\'footer\\\' style="float:left; width:50%">\\n<div style="background-color:">    \\n<table>\\n\\t<tr>\\n\\t    <td><form action="songpage.html?id1=\', escape=False)\nresponse.write(song[0][\'id\'])\nresponse.write(\'" method="POST">\\n\\t\\t    <link href="css/bootstrap.min.css" rel="stylesheet" media="screen">\\n\\t\\t    <input type="hidden" name="songid" value="\', escape=False)\nresponse.write(song[0][\'id\'])\nresponse.write(\'"/>\\n\\t\\t    \', escape=False)\nif int(likeform)==0:\n    response.write(\'\\n\\t\\t    <button type="submit" name="like"><i class="icon-thumbs-up"></i></button>\', escape=False)\n    response.write(song[0][\'Num_likes\'])\n    response.write(\'\\n\\t\\t    \', escape=False)\nelse:\n    response.write(\'\\n\\t\\t    <button type="submit" class="btn btn-success" name="like"><i class="icon-thumbs-up"></i></button>\', escape=False)\n    response.write(song[0][\'Num_likes\'])\n    response.write(\'\\n\\t\\t    \', escape=False)\n    pass\nresponse.write(\'\\n\\t    </form></td>\\n\\t    <td><form action="songpage.html?id1=\', escape=False)\nresponse.write(song[0][\'id\'])\nresponse.write(\'" method="POST">\\n\\t\\t    <link href="css/bootstrap.min.css" rel="stylesheet" media="screen">\\n\\t\\t    <input type="hidden" name="dsongid" value="\', escape=False)\nresponse.write(song[0][\'id\'])\nresponse.write(\'"/>\\n\\t\\t    \', escape=False)\nif int(dislikeform)==0:\n    response.write(\'\\n\\t\\t    <button type="submit" name="dislike"><i class="icon-thumbs-down"></i></button>\', escape=False)\n    response.write(song[0][\'Num_dislikes\'])\n    response.write(\'\\n\\t\\t    \', escape=False)\nelse:\n    response.write(\'\\n\\t\\t    <button type="submit" class="btn btn-success" name="dislike"><i class="icon-thumbs-down"></i></button>\', escape=False)\n    response.write(song[0][\'Num_dislikes\'])\n    response.write(\'\\n\\t\\t    \', escape=False)\n    pass\nresponse.write(\'\\n\\t    </form></td>\\n\\t    <td></td>\\n\\t    <td></td>\\n\\t    <td>My rating:</td>\\n\\t    <td><form action="songpage.html?id1=\', escape=False)\nresponse.write(song[0][\'id\'])\nresponse.write(\'" method="POST">\\n\\t\\t    <link href="css/bootstrap.min.css" rel="stylesheet" media="screen">\\n\\t\\t    <input type="hidden" name="r1" value="\', escape=False)\nresponse.write(song[0][\'id\'])\nresponse.write(\'"/>\\n\\t\\t    \', escape=False)\nif rate1var==0:\n    response.write(\'\\n\\t\\t    <button type="submit" name="rate1"><i class="icon-star"></i>\\n\\t\\t    </button>\\n\\t\\t    \', escape=False)\nelse:\n    response.write(\'\\n\\t\\t    <button type="submit" name="rate1" class="btn btn-warning"><i class="icon-star"></i>\\n\\t\\t    </button>\\n\\t\\t    \', escape=False)\n    pass\nresponse.write(\'\\n\\t    </form></td>\\n\\t    <td><form action="songpage.html?id1=\', escape=False)\nresponse.write(song[0][\'id\'])\nresponse.write(\'" method="POST">\\n\\t\\t    <link href="css/bootstrap.min.css" rel="stylesheet" media="screen">\\n\\t\\t    <input type="hidden" name="r2" value="\', escape=False)\nresponse.write(song[0][\'id\'])\nresponse.write(\'"/>\\n\\t\\t    \', escape=False)\nif rate2var==0:\n    response.write(\'\\n\\t\\t    <button type="submit" name="rate2"><i class="icon-star"></i>\\n\\t\\t    </button>\\n\\t\\t    \', escape=False)\nelse:\n    response.write(\'\\n\\t\\t    <button type="submit" name="rate2" class="btn btn-warning"><i class="icon-star"></i>\\n\\t\\t    </button>\\n\\t\\t    \', escape=False)\n    pass\nresponse.write(\'\\n\\t    </form></td>\\n\\t    <td><form action="songpage.html?id1=\', escape=False)\nresponse.write(song[0][\'id\'])\nresponse.write(\'" method="POST">\\n\\t\\t    <link href="css/bootstrap.min.css" rel="stylesheet" media="screen">\\n\\t\\t    <input type="hidden" name="r3" value="\', escape=False)\nresponse.write(song[0][\'id\'])\nresponse.write(\'"/>\\n\\t\\t    \', escape=False)\nif rate3var==0:\n    response.write(\'\\n\\t\\t    <button type="submit" name="rate3"><i class="icon-star"></i>\\n\\t\\t    </button>\\n\\t\\t    \', escape=False)\nelse:\n    response.write(\'\\n\\t\\t    <button type="submit" name="rate3" class="btn btn-warning"><i class="icon-star"></i>\\n\\t\\t    </button>\\n\\t\\t    \', escape=False)\n    pass\nresponse.write(\'\\n\\t    </form></td>\\n\\t    <td><form action="songpage.html?id1=\', escape=False)\nresponse.write(song[0][\'id\'])\nresponse.write(\'" method="POST">\\n\\t\\t    <link href="css/bootstrap.min.css" rel="stylesheet" media="screen">\\n\\t\\t    <input type="hidden" name="r4" value="\', escape=False)\nresponse.write(song[0][\'id\'])\nresponse.write(\'"/>\\n\\t\\t    \', escape=False)\nif rate4var==0:\n    response.write(\'\\n\\t\\t    <button type="submit" name="rate4"><i class="icon-star"></i>\\n\\t\\t    </button>\\n\\t\\t    \', escape=False)\nelse:\n    response.write(\'\\n\\t\\t    <button type="submit" name="rate4" class="btn btn-warning"><i class="icon-star"></i>\\n\\t\\t    </button>\\n\\t\\t    \', escape=False)\n    pass\nresponse.write(\'\\n\\t    </form></td>\\n\\t    <td><form action="songpage.html?id1=\', escape=False)\nresponse.write(song[0][\'id\'])\nresponse.write(\'" method="POST">\\n\\t\\t    <link href="css/bootstrap.min.css" rel="stylesheet" media="screen">\\n\\t\\t    <input type="hidden" name="r5" value="\', escape=False)\nresponse.write(song[0][\'id\'])\nresponse.write(\'"/>\\n\\t\\t    \', escape=False)\nif rate5var==0:\n    response.write(\'\\n\\t\\t    <button type="submit" name="rate5"><i class="icon-star"></i>\\n\\t\\t    </button>\\n\\t\\t    \', escape=False)\nelse:\n    response.write(\'\\n\\t\\t    <button type="submit" name="rate5" class="btn btn-warning"><i class="icon-star"></i>\\n\\t\\t    </button>\\n\\t\\t    \', escape=False)\n    pass\nresponse.write(\'\\n\\t    </form></td>\\n\\t</table>\\n\\t</div>\\n\\n\\t\\n\\t</br></br>\\n<div style="background-color:">\\n    \', escape=False)\nif auth.user.username==\'admin\' or auth.user_id==song[0][\'user_id\'] or auth.user.reputation>100:\n    response.write(\'\\n    \', escape=False)\n    if auth.user.username==\'admin\' :\n        response.write(\'\\n    Admin Rights\\n    \', escape=False)\n    elif auth.user_id==song[0][\'user_id\'] :\n        response.write(\'\\n    Song uploaded by you , you can edit or delete\\n    \', escape=False)\n        else if auth.user.reputation > 100 :\n            response.write(\'\\n    Reputed user with reputation \', escape=False)\n            response.write(auth.user.reputation)\n            response.write(\' can edit or delete songs.\\n    \', escape=False)\n            pass\n        response.write(\'\\n    <div style="float:left">\\n\\t<a style="background-color:"href="delete_song?id1=\', escape=False)\n        response.write(x1)\n        response.write(\'"><input type="button" value="DELETE SONG"></a>\\n    </div>\\n    <div style="float:right">\\n\\t<a href="edit_song?id1=\', escape=False)\n        response.write(x1)\n        response.write(\'"><input type="button" value="EDIT SONG"></a>\\n    </div>\\n    \', escape=False)\n        pass\n    response.write(\'\\n    <br />\\n    <br />\\n\\t<div style=\\\'text-align:center; background-color:\\\'><b><p style="text-align:center;background-color:black">Current Rating : \', escape=False)\n    response.write(ctr)\n    response.write(\'</p></b><br>\\n\\n\', escape=False)\n    if in_playlist==0:\n        response.write(\'\\n<div style="float:left">\\n\\t<a style="background-color:" href="add_to_playlist?id1=\', escape=False)\n        response.write(yy)\n        response.write(\'"><input type="button" value="ADD TO PLAYLIST" /></a></div>\\n\\t\', escape=False)\n    else:\n        response.write(\'\\n\\t\\n\\t<a style="background-color:" href="remove_from_playlist?id1=\', escape=False)\n        response.write(yy)\n        response.write(\'"><input type="button" value="REMOVE FROM PLAYLIST"></a>\\n\\t\', escape=False)\n        pass\n    response.write(\'\\t\\n    <a href="recommend?id1=\', escape=False)\n    response.write(yy)\n    response.write(\'"><input type="button" value="RECOMMEND"></a>   \\n\\t\', escape=False)\n    if already_reported==0:\n        response.write(\'\\n\\t<div style="float:right">\\n\\t<a style="background-color:" href="report_song?id1=\', escape=False)\n        response.write(yy)\n        response.write(\'"><input type="button" value="REPORT SONG"></a></div>\\n    \', escape=False)\n    else:\n        response.write(\'\\n    <br />\\n\\tYou have Reported the song. Action will be taken soon if song found inappropriate. Do you want to <a href="report_song_undo?id1=\', escape=False)\n        response.write(yy)\n        response.write(\'" style="color:green">Undo Report?</a>\\n\\t\', escape=False)\n        pass\n    response.write(\'</br></br>\\n<div style="float:right;">    \\n\\t<a href="#comm"><div style=\\\'text-align:right; background-color:black\\\'><b>Comment</b></div></a>\\n\\t    </div>\\n\\t<br>\\n\\n\\n\\t</div>\\n\\t\', escape=False)\n    count=0\n    response.write(\'\\n\\t<h4 style="background-color:peru">Comments :</h4>\\n\\t<ul>\\n\\t    \', escape=False)\n    for i in comments:\n        response.write(\'\\n\\t    <li style=\\\'background-color:; float:center\\\'>\\n\\t<p style="color:black">\', escape=False)\n        response.write(TAG.img(_width=60, _src=URL(r=request, c=\'default\', f=\'download\', args=userpic[count])))\n        response.write(\'\\t    \\n\\t<b>By \', escape=False)\n        response.write(COMMENT_USERS[count][\'username\'])\n        response.write(\'\\n\\n\\t             : @ \', escape=False)\n        response.write(i[\'comment_time\'])\n        response.write(\'</b></p>\\n\\t\\t<pre>\', escape=False)\n        response.write(i[\'comment_text\'])\n        response.write(\'</pre>\\n\', escape=False)\n        if (status == 1):\n            response.write(\'<b>\\n         <div style=\\\'float:right\\\'>\\n        <a href="update_comment?id1=\', escape=False)\n            response.write(x1)\n            response.write(\'" style=\\\'background-color:black;text-align:right\\\'>Update</a>\\n         </div>\\n         \', escape=False)\n        elif (status == 2):\n            response.write(\'\\n         <div style=\\\'float:right\\\'>\\n         <a href="update_comment?id1=\', escape=False)\n            response.write(x1)\n            response.write(\'" style=\\\'background-color:black;text-align:right\\\'>Update</a>\\n         </div>\\n         \', escape=False)\n        else:\n            response.write(\'\\n             \', escape=False)\n            if(stat[count] == 1):\n                response.write(\'\\n             <div style=\\\'float:right\\\'>\\n         \\t<a href="update_comment?id1=\', escape=False)\n                response.write(x1)\n                response.write(\'" style=\\\'background-color:black;text-align:right\\\'>Update</a>\\n             </div></b>\\n             \', escape=False)\n                pass\n            response.write(\'\\n         \', escape=False)\n            pass\n        response.write(\'\\n             \', escape=False)\n        count+=1\n        response.write(\'\\n\\n\\t    \', escape=False)\n        if i[\'reported\']==0 :\n            response.write(\'\\n\\t    <a href="report_comment?id1=\', escape=False)\n            response.write(yy)\n            response.write(\'&id2=\', escape=False)\n            response.write(i[\'id\'])\n            response.write(\'" style="background-color:black">REPORT</a>\\n\\t    \', escape=False)\n        else:\n            response.write(\'\\n\\t    You have Reported the comment. Action will be taken soon if comment found inappropriate. Do you want to <a href="report_comment_undo?id1=\', escape=False)\n            response.write(yy)\n            response.write(\'&id2=\', escape=False)\n            response.write(i[\'id\'])\n            response.write(\'">Undo Report?</a>\\n\\t    \', escape=False)\n            pass\n        response.write(\'\\n\\t    </li>\\n\\t\\t<br/><br/>\\n\\t    \', escape=False)\n        pass\n    response.write(\'\\n\\t</ul>\\n\\t<br>\\n<b><div style="background-color:">\\n    About the song: \', escape=False)\n    response.write(song[0][\'Description\'])\n    response.write(\'<br>\\n\\t</b></div>\\n\\t<div id=\\\'comment form\\\' style=\\\'background-color:\\\'>\\n\\t    <a id=\\\'comm\\\'><h4 style="background-color:">Post a Comment </h4></a>\\n\\t    \', escape=False)\n    response.write(commform)\n    response.write(\'\\n\\t</div>\\n\\n    </div>\\n\', escape=False)\n    response.write(\'\\n            \', escape=False)\n    response.write(\'\\n        </div>\\n\\n        \', escape=False)\n    if right_sidebar_enabled:\n        response.write(\'\\n        <div class="span3">\\n            \', escape=False)\n        response.write(\'\\n            <h3>Right Sidebar</h3>\\n            <p></p>\\n            \', escape=False)\n        response.write(\'\\n        </div>\\n        \', escape=False)\n        pass\n    response.write(\'\\n    </section><!--/main-->\\n\\n    <!-- Footer ================================================== -->\\n    <div class="row">\\n        <footer class="footer span12" id="footer">\\n            <div class="footer-content">\\n                \', escape=False)\n    response.write(\' <!-- this is default footer -->\\n                <div class="copyright pull-left">\', escape=False)\n    response.write(T(\'Copyright\'))\n    response.write(\' &#169; \', escape=False)\n    response.write(request.now.year)\n    response.write(\'</div>\\n                <div id="poweredBy" class="pull-right">\\n                    \', escape=False)\n    response.write(T(\'Powered by\'))\n    response.write(\'\\n                    <a href="http://www.web2py.com/">web2py</a>\\n                </div>\\n                \', escape=False)\n    response.write(\'\\n            </div>\\n        </footer>\\n    </div>\\n\\n  </div> <!-- /container -->\\n\\n  <!-- The javascript =============================================\\n       (Placed at the end of the document so the pages load faster) -->\\n  <script src="\', escape=False)\n    response.write(URL(\'static\',\'js/bootstrap.min.js\'))\n    response.write(\'"></script>\\n  <script src="\', escape=False)\n    response.write(URL(\'static\',\'js/web2py_bootstrap.js\'))\n    response.write(\'"></script>\\n  <!--[if lt IE 7 ]>\\n      <script src="\', escape=False)\n    response.write(URL(\'static\',\'js/dd_belatedpng.js\'))\n    response.write(\'"></script>\\n      <script> DD_belatedPNG.fix(\\\'img, .png_bg\\\'); //fix any <img> or .png_bg background-images </script>\\n      <![endif]-->\\n  \\n  \', escape=False)\n    if response.google_analytics_id:\n        response.write(\'\\n  <script src="\', escape=False)\n        response.write(URL(\'static\',\'js/analytics.min.js\'))\n        response.write(\'"></script>\\n  <script type="text/javascript">\\n  analytics.initialize({\\n    \\\'Google Analytics\\\':{trackingId:\\\'\', escape=False)\n        response.write(response.google_analytics_id)\n        response.write("\'} \\n  });</script>\\n  ", escape=False)\n        pass\n    response.write(\'\\n  <script src="\', escape=False)\n    response.write(URL(\'static\',\'js/share.js\',vars=dict(static=URL(\'static\',\'images\'))))\n    response.write(\'"></script>\\n</body>\\n</html>\\n\\n\', escape=False)'
p7
sS'snapshot'
p8
(dp9
S'exception'
p10
(dp11
S'__module__'
p12
S"'gluon.rocket'"
p13
sS'__getslice__'
p14
S"<method-wrapper '__getslice__' of SocketTimeout object>"
p15
sS'__str__'
p16
S"<method-wrapper '__str__' of SocketTimeout object>"
p17
sS'__reduce__'
p18
S'<built-in method __reduce__ of SocketTimeout object>'
p19
sS'__dict__'
p20
S'{}'
p21
sS'__sizeof__'
p22
S'<built-in method __sizeof__ of SocketTimeout object>'
p23
sS'__weakref__'
p24
S'None'
p25
sS'__init__'
p26
S"<method-wrapper '__init__' of SocketTimeout object>"
p27
sS'__setattr__'
p28
S"<method-wrapper '__setattr__' of SocketTimeout object>"
p29
sS'__reduce_ex__'
p30
S'<built-in method __reduce_ex__ of SocketTimeout object>'
p31
sS'__new__'
p32
S'<built-in method __new__ of type object>'
p33
sS'__format__'
p34
S'<built-in method __format__ of SocketTimeout object>'
p35
sS'__class__'
p36
S"<class 'gluon.rocket.SocketTimeout'>"
p37
sS'__doc__'
p38
S"'Exception for when a socket times out between requests.'"
p39
sS'__getitem__'
p40
S"<method-wrapper '__getitem__' of SocketTimeout object>"
p41
sS'__setstate__'
p42
S'<built-in method __setstate__ of SocketTimeout object>'
p43
sS'__getattribute__'
p44
S"<method-wrapper '__getattribute__' of SocketTimeout object>"
p45
sS'args'
p46
S"('Socket timed out before request.',)"
p47
sS'__subclasshook__'
p48
S'<built-in method __subclasshook__ of type object>'
p49
sS'__unicode__'
p50
S'<built-in method __unicode__ of SocketTimeout object>'
p51
sS'__delattr__'
p52
S"<method-wrapper '__delattr__' of SocketTimeout object>"
p53
sS'__repr__'
p54
S"<method-wrapper '__repr__' of SocketTimeout object>"
p55
sS'__hash__'
p56
S"<method-wrapper '__hash__' of SocketTimeout object>"
p57
ssS'evalue'
p58
S'Socket timed out before request.'
p59
sS'frames'
p60
(lp61
(dp62
S'file'
p63
S'/home/himangi/INTRO TO DB/web2py/gluon/rocket.py'
p64
sS'dump'
p65
(dp66
S'self'
p67
S'<WSGIWorker(Thread-37, started daemon -1517860032)>'
p68
sS'conn'
p69
S'<gluon.rocket.Connection object>'
p70
sS'self.run_app'
p71
S'<bound method WSGIWorker.run_app of <WSGIWorker(Thread-37, started daemon -1517860032)>>'
p72
ssS'lnum'
p73
I1337
sS'lines'
p74
(dp75
I1332
S'            # Enter connection serve loop'
p76
sI1333
S'            while True:'
p77
sI1334
S'                if __debug__:'
p78
sI1335
S"                    self.err_log.debug('Serving a request')"
p79
sI1336
S'                try:'
p80
sI1337
S'                    self.run_app(conn)'
p81
sI1338
S'                except:'
p82
sI1339
S'                    exc = sys.exc_info()'
p83
sI1340
S'                    handled = self._handleError(*exc)'
p84
sI1341
S'                    if handled:'
p85
ssS'call'
p86
S'(self=<WSGIWorker(Thread-37, started daemon -1517860032)>)'
p87
sS'func'
p88
S'run'
p89
sa(dp90
g63
S'/home/himangi/INTRO TO DB/web2py/gluon/rocket.py'
p91
sg65
(dp92
S'self'
p93
S'<WSGIWorker(Thread-37, started daemon -1517860032)>'
p94
sS'self.environ'
p95
S"{'HTTP_ACCEPT': 'text/html,application/xhtml+xml,application/xml;q=0.9,*/*;q=0.8', 'HTTP_ACCEPT_ENCODING': 'gzip, deflate', 'HTTP_ACCEPT_LANGUAGE': 'en-US,en;q=0.5', 'HTTP_CONNECTION': 'keep-alive', 'HTTP_COOKIE': 'session_id_welcome=127.0.0.1-47ab2671-4b0b-4abc-...in=127.0.0.1-fe3be64a-7f21-4ab4-9593-06815839cd5e', 'HTTP_DNT': '1', 'HTTP_HOST': '127.0.0.1:8000', 'HTTP_REFERER': 'http://127.0.0.1:8000/swaraa/default/homepage.html', 'HTTP_USER_AGENT': 'Mozilla/5.0 (X11; Ubuntu; Linux i686; rv:24.0) Gecko/20100101 Firefox/24.0', 'PATH_INFO': '/swaraa/default/songpage', ...}"
p96
sS'sock_file'
p97
S'<socket._fileobject object>'
p98
sS'environ'
p99
S'undefined'
p100
sS'self.build_environ'
p101
S'<bound method WSGIWorker.build_environ of <WSGIWorker(Thread-37, started daemon -1517860032)>>'
p102
sS'conn'
p103
S'<gluon.rocket.Connection object>'
p104
ssg73
I1830
sg74
(dp105
I1825
S'        else:'
p106
sI1826
S'            sock_file = conn.makefile(BUF_SIZE)'
p107
sI1827
S''
sI1828
S'        try:'
p108
sI1829
S'            # Read the headers and build our WSGI environment'
p109
sI1830
S'            self.environ = environ = self.build_environ(sock_file, conn)'
p110
sI1831
S''
sI1832
S'            # Handle 100 Continue'
p111
sI1833
S"            if environ.get('HTTP_EXPECT', '') == '100-continue':"
p112
sI1834
S"                res = environ['SERVER_PROTOCOL'] + ' 100 Continue\\r\\n\\r\\n'"
p113
ssg86
S'(self=<WSGIWorker(Thread-37, started daemon -1517860032)>, conn=<gluon.rocket.Connection object>)'
p114
sg88
S'run_app'
p115
sa(dp116
g63
S'/home/himangi/INTRO TO DB/web2py/gluon/rocket.py'
p117
sg65
(dp118
S'sock_file'
p119
S'<socket._fileobject object>'
p120
sS'self.read_request_line'
p121
S'<bound method WSGIWorker.read_request_line of <WSGIWorker(Thread-37, started daemon -1517860032)>>'
p122
sS'self'
p123
S'<WSGIWorker(Thread-37, started daemon -1517860032)>'
p124
sS'request'
p125
g100
ssg73
I1650
sg74
(dp126
I1645
S'                                      "wsgiorg.futures": executor.futures})'
p127
sI1646
S''
sI1647
S'    def build_environ(self, sock_file, conn):'
p128
sI1648
S'        """ Build the execution environment. """'
p129
sI1649
S'        # Grab the request line'
p130
sI1650
S'        request = self.read_request_line(sock_file)'
p131
sI1651
S''
sI1652
S'        # Copy the Base Environment'
p132
sI1653
S'        environ = self.base_environ.copy()'
p133
sI1654
S''
ssg86
S'(self=<WSGIWorker(Thread-37, started daemon -1517860032)>, sock_file=<socket._fileobject object>, conn=<gluon.rocket.Connection object>)'
p134
sg88
S'build_environ'
p135
sa(dp136
g63
S'/home/himangi/INTRO TO DB/web2py/gluon/rocket.py'
p137
sg65
(dp138
S'global SocketTimeout'
p139
S"<class 'gluon.rocket.SocketTimeout'>"
p140
ssg73
I1401
sg74
(dp141
I1396
S''
sI1397
S'                d = sock_file.readline()'
p142
sI1398
S'                if PY3K:'
p143
sI1399
S"                    d = d.decode('ISO-8859-1')"
p144
sI1400
S'        except socket.timeout:'
p145
sI1401
S"            raise SocketTimeout('Socket timed out before request.')"
p146
sI1402
S'        except TypeError:'
p147
sI1403
S'            raise SocketClosed('
p148
sI1404
S"                'SSL bug caused closure of socket.  See '"
p149
sI1405
S'                \'"https://groups.google.com/d/topic/web2py/P_Gw0JxWzCs".\')'
p150
ssg86
S'(self=<WSGIWorker(Thread-37, started daemon -1517860032)>, sock_file=<socket._fileobject object>)'
p151
sg88
S'read_request_line'
p152
sasS'pyver'
p153
S'Python 2.7.3: /usr/bin/python (prefix: /usr)'
p154
sS'etype'
p155
S"<class 'gluon.rocket.SocketTimeout'>"
p156
sS'date'
p157
S'Wed Nov 20 06:20:11 2013'
p158
sS'locals'
p159
(dp160
S'sock_file'
p161
S'<socket._fileobject object>'
p162
sS'self'
p163
S'<WSGIWorker(Thread-37, started daemon -1517860032)>'
p164
sssS'traceback'
p165
S'Traceback (most recent call last):\n  File "/home/himangi/INTRO TO DB/web2py/gluon/rocket.py", line 1337, in run\n    self.run_app(conn)\n  File "/home/himangi/INTRO TO DB/web2py/gluon/rocket.py", line 1830, in run_app\n    self.environ = environ = self.build_environ(sock_file, conn)\n  File "/home/himangi/INTRO TO DB/web2py/gluon/rocket.py", line 1650, in build_environ\n    request = self.read_request_line(sock_file)\n  File "/home/himangi/INTRO TO DB/web2py/gluon/rocket.py", line 1401, in read_request_line\n    raise SocketTimeout(\'Socket timed out before request.\')\nSocketTimeout: Socket timed out before request.\n'
p166
s.